; Function Attrs: mustprogress sspstrong uwtable
define noundef nonnull align 8 dereferenceable(60) ptr @_ZN4FLAC8Metadata13VorbisComment5EntryaSERKS2_(ptr noundef nonnull returned align 8 dereferenceable(60) %this, ptr nocapture noundef nonnull readonly align 8 dereferenceable(60) %entry1) local_unnamed_addr #0 align 2 {
entry:
  %entry2.i.i = getelementptr inbounds i8, ptr %this, i64 24
  %0 = load ptr, ptr %entry2.i.i, align 8
  %cmp.not.i.i = icmp eq ptr %0, null
  br i1 %cmp.not.i.i, label %_ZN4FLAC8Metadata13VorbisComment5Entry11clear_entryEv.exit.i, label %if.then.i.i

if.then.i.i:                                      ; preds = %entry
  %entry_.i.i = getelementptr inbounds i8, ptr %this, i64 16
  tail call void @free(ptr noundef nonnull %0) #20
  store ptr null, ptr %entry2.i.i, align 8
  store i32 0, ptr %entry_.i.i, align 8
  br label %_ZN4FLAC8Metadata13VorbisComment5Entry11clear_entryEv.exit.i

_ZN4FLAC8Metadata13VorbisComment5Entry11clear_entryEv.exit.i: ; preds = %if.then.i.i, %entry
  %field_name_.i.i = getelementptr inbounds i8, ptr %this, i64 32
  %1 = load ptr, ptr %field_name_.i.i, align 8
  %cmp.not.i1.i = icmp eq ptr %1, null
  br i1 %cmp.not.i1.i, label %_ZN4FLAC8Metadata13VorbisComment5Entry16clear_field_nameEv.exit.i, label %if.then.i2.i

if.then.i2.i:                                     ; preds = %_ZN4FLAC8Metadata13VorbisComment5Entry11clear_entryEv.exit.i
  tail call void @free(ptr noundef nonnull %1) #20
  store ptr null, ptr %field_name_.i.i, align 8
  %field_name_length_.i.i = getelementptr inbounds i8, ptr %this, i64 40
  store i32 0, ptr %field_name_length_.i.i, align 8
  br label %_ZN4FLAC8Metadata13VorbisComment5Entry16clear_field_nameEv.exit.i

_ZN4FLAC8Metadata13VorbisComment5Entry16clear_field_nameEv.exit.i: ; preds = %if.then.i2.i, %_ZN4FLAC8Metadata13VorbisComment5Entry11clear_entryEv.exit.i
  %field_value_.i.i = getelementptr inbounds i8, ptr %this, i64 48
  %2 = load ptr, ptr %field_value_.i.i, align 8
  %cmp.not.i3.i = icmp eq ptr %2, null
  br i1 %cmp.not.i3.i, label %_ZN4FLAC8Metadata13VorbisComment5Entry5clearEv.exit, label %if.then.i4.i

if.then.i4.i:                                     ; preds = %_ZN4FLAC8Metadata13VorbisComment5Entry16clear_field_nameEv.exit.i
  tail call void @free(ptr noundef nonnull %2) #20
  store ptr null, ptr %field_value_.i.i, align 8
  %field_value_length_.i.i = getelementptr inbounds i8, ptr %this, i64 56
  store i32 0, ptr %field_value_length_.i.i, align 8
  br label %_ZN4FLAC8Metadata13VorbisComment5Entry5clearEv.exit

_ZN4FLAC8Metadata13VorbisComment5Entry5clearEv.exit: ; preds = %_ZN4FLAC8Metadata13VorbisComment5Entry16clear_field_nameEv.exit.i, %if.then.i4.i
  %is_valid_.i = getelementptr inbounds i8, ptr %this, i64 8
  store i8 1, ptr %is_valid_.i, align 8
  %entry_ = getelementptr inbounds i8, ptr %entry1, i64 16
  %entry3 = getelementptr inbounds i8, ptr %entry1, i64 24
  %3 = load ptr, ptr %entry3, align 8
  %4 = load i32, ptr %entry_, align 8
  %call.i.i = tail call i32 @FLAC__format_vorbiscomment_entry_is_legal(ptr noundef %3, i32 noundef %4)
  %tobool.not.i.i = icmp eq i32 %call.i.i, 0
  br i1 %tobool.not.i.i, label %if.then.i.i3, label %if.end.i.i

if.then.i.i3:                                     ; preds = %_ZN4FLAC8Metadata13VorbisComment5Entry5clearEv.exit
  store i8 0, ptr %is_valid_.i, align 8
  br label %_ZN4FLAC8Metadata13VorbisComment5Entry9constructEPKcj.exit

if.end.i.i:                                       ; preds = %_ZN4FLAC8Metadata13VorbisComment5Entry5clearEv.exit
  %5 = load ptr, ptr %entry2.i.i, align 8
  %cmp.not.i.i.i = icmp eq ptr %5, null
  br i1 %cmp.not.i.i.i, label %_ZN4FLAC8Metadata13VorbisComment5Entry11clear_entryEv.exit.i.i, label %if.then.i.i.i

if.then.i.i.i:                                    ; preds = %if.end.i.i
  %entry_.i.i.i = getelementptr inbounds i8, ptr %this, i64 16
  tail call void @free(ptr noundef nonnull %5) #20
  store i32 0, ptr %entry_.i.i.i, align 8
  br label %_ZN4FLAC8Metadata13VorbisComment5Entry11clear_entryEv.exit.i.i

_ZN4FLAC8Metadata13VorbisComment5Entry11clear_entryEv.exit.i.i: ; preds = %if.then.i.i.i, %if.end.i.i
  %conv.i.i = zext i32 %4 to i64
  %add.i.i.i = add nuw nsw i64 %conv.i.i, 1
  %call.i.i.i.i = tail call noalias noundef ptr @malloc(i64 noundef %add.i.i.i) #23
  store ptr %call.i.i.i.i, ptr %entry2.i.i, align 8
  %cmp.i.i = icmp eq ptr %call.i.i.i.i, null
  br i1 %cmp.i.i, label %if.then4.i.i, label %_ZN4FLAC8Metadata13VorbisComment5Entry9set_fieldEPKcj.exit.i

if.then4.i.i:                                     ; preds = %_ZN4FLAC8Metadata13VorbisComment5Entry11clear_entryEv.exit.i.i
  store i8 0, ptr %is_valid_.i, align 8
  br label %_ZN4FLAC8Metadata13VorbisComment5Entry9constructEPKcj.exit

_ZN4FLAC8Metadata13VorbisComment5Entry9set_fieldEPKcj.exit.i: ; preds = %_ZN4FLAC8Metadata13VorbisComment5Entry11clear_entryEv.exit.i.i
  %entry_.i.i2 = getelementptr inbounds i8, ptr %this, i64 16
  store i32 %4, ptr %entry_.i.i2, align 8
  tail call void @llvm.memcpy.p0.p0.i64(ptr nonnull align 1 %call.i.i.i.i, ptr align 1 %3, i64 %conv.i.i, i1 false)
  %arrayidx.i.i = getelementptr inbounds i8, ptr %call.i.i.i.i, i64 %conv.i.i
  store i8 0, ptr %arrayidx.i.i, align 1
  tail call void @_ZN4FLAC8Metadata13VorbisComment5Entry11parse_fieldEv(ptr noundef nonnull align 8 dereferenceable(60) %this)
  %.pre.i.i = load i8, ptr %is_valid_.i, align 8
  %6 = and i8 %.pre.i.i, 1
  %.not.i = icmp eq i8 %6, 0
  br i1 %.not.i, label %_ZN4FLAC8Metadata13VorbisComment5Entry9constructEPKcj.exit, label %if.then.i

if.then.i:                                        ; preds = %_ZN4FLAC8Metadata13VorbisComment5Entry9set_fieldEPKcj.exit.i
  tail call void @_ZN4FLAC8Metadata13VorbisComment5Entry11parse_fieldEv(ptr noundef nonnull align 8 dereferenceable(60) %this)
  br label %_ZN4FLAC8Metadata13VorbisComment5Entry9constructEPKcj.exit

_ZN4FLAC8Metadata13VorbisComment5Entry9constructEPKcj.exit: ; preds = %if.then.i.i3, %if.then4.i.i, %_ZN4FLAC8Metadata13VorbisComment5Entry9set_fieldEPKcj.exit.i, %if.then.i
  ret ptr %this
}